target datalayout = "e-m:e-p270:32:32-p271:32:32-p272:64:64-i64:64-i128:128-f80:128-n8:16:32:64-S128"
target triple = "x86_64-pc-linux-gnu"

%struct.H5FD_onion_index_entry_t = type { i64, i64 }
%struct.H5FD_onion_revision_index_t = type { i8, i32, i64, i64, i64, i64, ptr }
%struct.H5FD_onion_revision_index_hash_chain_node_t = type { i8, %struct.H5FD_onion_index_entry_t, ptr }

@H5FD_init_g = external global i8, align 1
@H5_libterm_g = external global i8, align 1

; Function Attrs: nounwind uwtable
define i32 @H5FD__onion_revision_index_destroy(ptr noundef %0) #0 {
  %2 = alloca ptr, align 8
  %3 = alloca i32, align 4
  %4 = alloca i64, align 8
  %5 = alloca ptr, align 8
  %6 = alloca ptr, align 8
  store ptr %0, ptr %2, align 8, !tbaa !65
  call void @llvm.lifetime.start.p0(i64 4, ptr %3) #9
  store i32 0, ptr %3, align 4, !tbaa !16
  %7 = load i8, ptr @H5FD_init_g, align 1, !tbaa !18, !range !20, !noundef !21
  %8 = trunc i8 %7 to i1
  br i1 %8, label %13, label %9

9:                                                ; preds = %1
  %10 = load i8, ptr @H5_libterm_g, align 1, !tbaa !18, !range !20, !noundef !21
  %11 = trunc i8 %10 to i1
  %12 = xor i1 %11, true
  br label %13

13:                                               ; preds = %9, %1
  %14 = phi i1 [ true, %1 ], [ %12, %9 ]
  %15 = xor i1 %14, true
  %16 = xor i1 %15, true
  %17 = zext i1 %16 to i32
  %18 = sext i32 %17 to i64
  %19 = call i64 @llvm.expect.i64(i64 %18, i64 1)
  %20 = icmp ne i64 %19, 0
  br i1 %20, label %21, label %72

21:                                               ; preds = %13
  call void @llvm.lifetime.start.p0(i64 8, ptr %4) #9
  store i64 0, ptr %4, align 8, !tbaa !12
  br label %22

22:                                               ; preds = %62, %21
  %23 = load ptr, ptr %2, align 8, !tbaa !65
  %24 = getelementptr inbounds nuw %struct.H5FD_onion_revision_index_t, ptr %23, i32 0, i32 5
  %25 = load i64, ptr %24, align 8, !tbaa !67
  %26 = icmp ult i64 0, %25
  br i1 %26, label %27, label %33

27:                                               ; preds = %22
  %28 = load i64, ptr %4, align 8, !tbaa !12
  %29 = load ptr, ptr %2, align 8, !tbaa !65
  %30 = getelementptr inbounds nuw %struct.H5FD_onion_revision_index_t, ptr %29, i32 0, i32 3
  %31 = load i64, ptr %30, align 8, !tbaa !70
  %32 = icmp ult i64 %28, %31
  br label %33

33:                                               ; preds = %27, %22
  %34 = phi i1 [ false, %22 ], [ %32, %27 ]
  br i1 %34, label %36, label %35

35:                                               ; preds = %33
  call void @llvm.lifetime.end.p0(i64 8, ptr %4) #9
  br label %65

36:                                               ; preds = %33
  call void @llvm.lifetime.start.p0(i64 8, ptr %5) #9
  store ptr null, ptr %5, align 8, !tbaa !71
  call void @llvm.lifetime.start.p0(i64 8, ptr %6) #9
  %37 = load ptr, ptr %2, align 8, !tbaa !65
  %38 = getelementptr inbounds nuw %struct.H5FD_onion_revision_index_t, ptr %37, i32 0, i32 6
  %39 = load ptr, ptr %38, align 8, !tbaa !73
  %40 = load i64, ptr %4, align 8, !tbaa !12
  %41 = getelementptr inbounds nuw ptr, ptr %39, i64 %40
  %42 = load ptr, ptr %41, align 8, !tbaa !71
  store ptr %42, ptr %6, align 8, !tbaa !71
  %43 = load ptr, ptr %6, align 8, !tbaa !71
  %44 = icmp ne ptr %43, null
  br i1 %44, label %45, label %50

45:                                               ; preds = %36
  %46 = load ptr, ptr %2, align 8, !tbaa !65
  %47 = getelementptr inbounds nuw %struct.H5FD_onion_revision_index_t, ptr %46, i32 0, i32 5
  %48 = load i64, ptr %47, align 8, !tbaa !67
  %49 = sub i64 %48, 1
  store i64 %49, ptr %47, align 8, !tbaa !67
  br label %50

50:                                               ; preds = %45, %36
  br label %51

51:                                               ; preds = %54, %50
  %52 = load ptr, ptr %6, align 8, !tbaa !71
  %53 = icmp ne ptr %52, null
  br i1 %53, label %54, label %61

54:                                               ; preds = %51
  %55 = load ptr, ptr %6, align 8, !tbaa !71
  %56 = getelementptr inbounds nuw %struct.H5FD_onion_revision_index_hash_chain_node_t, ptr %55, i32 0, i32 2
  %57 = load ptr, ptr %56, align 8, !tbaa !74
  store ptr %57, ptr %5, align 8, !tbaa !71
  %58 = load ptr, ptr %6, align 8, !tbaa !71
  %59 = call ptr @H5MM_xfree(ptr noundef %58)
  %60 = load ptr, ptr %5, align 8, !tbaa !71
  store ptr %60, ptr %6, align 8, !tbaa !71
  br label %51, !llvm.loop !76

61:                                               ; preds = %51
  call void @llvm.lifetime.end.p0(i64 8, ptr %6) #9
  call void @llvm.lifetime.end.p0(i64 8, ptr %5) #9
  br label %62

62:                                               ; preds = %61
  %63 = load i64, ptr %4, align 8, !tbaa !12
  %64 = add i64 %63, 1
  store i64 %64, ptr %4, align 8, !tbaa !12
  br label %22, !llvm.loop !77

65:                                               ; preds = %35
  %66 = load ptr, ptr %2, align 8, !tbaa !65
  %67 = getelementptr inbounds nuw %struct.H5FD_onion_revision_index_t, ptr %66, i32 0, i32 6
  %68 = load ptr, ptr %67, align 8, !tbaa !73
  %69 = call ptr @H5MM_xfree(ptr noundef %68)
  %70 = load ptr, ptr %2, align 8, !tbaa !65
  %71 = call ptr @H5MM_xfree(ptr noundef %70)
  br label %72

72:                                               ; preds = %65, %13
  %73 = load i32, ptr %3, align 4, !tbaa !16
  call void @llvm.lifetime.end.p0(i64 4, ptr %3) #9
  ret i32 %73
}