; Function Attrs: nounwind uwtable
define noundef i32 @H5FD__onion_revision_index_destroy(ptr noundef %0) local_unnamed_addr #0 {
  %2 = load i8, ptr @H5FD_init_g, align 1, !tbaa !3, !range !7, !noundef !8
  %3 = trunc nuw i8 %2 to i1
  %4 = load i8, ptr @H5_libterm_g, align 1, !range !7
  %5 = trunc nuw i8 %4 to i1
  %6 = xor i1 %5, true
  %7 = select i1 %3, i1 true, i1 %6
  br i1 %7, label %.preheader, label %31, !prof !9

.preheader:                                       ; preds = %1
  %8 = getelementptr inbounds nuw i8, ptr %0, i64 16
  %9 = getelementptr inbounds nuw i8, ptr %0, i64 32
  %10 = load i64, ptr %9, align 8, !tbaa !58
  %.not20 = icmp eq i64 %10, 0
  br i1 %.not20, label %.critedge, label %.lr.ph22

.lr.ph22:                                         ; preds = %.preheader
  %11 = getelementptr inbounds nuw i8, ptr %0, i64 40
  br label %12

12:                                               ; preds = %.lr.ph22, %._crit_edge
  %13 = phi i64 [ %10, %.lr.ph22 ], [ %29, %._crit_edge ]
  %.01421 = phi i64 [ 0, %.lr.ph22 ], [ %30, %._crit_edge ]
  %14 = load i64, ptr %8, align 8, !tbaa !61
  %15 = icmp ult i64 %.01421, %14
  br i1 %15, label %20, label %.critedge

.critedge:                                        ; preds = %12, %._crit_edge, %.preheader
  %16 = getelementptr inbounds nuw i8, ptr %0, i64 40
  %17 = load ptr, ptr %16, align 8, !tbaa !62
  %18 = tail call ptr @H5MM_xfree(ptr noundef %17) #14
  %19 = tail call ptr @H5MM_xfree(ptr noundef nonnull %0) #14
  br label %31

20:                                               ; preds = %12
  %21 = load ptr, ptr %11, align 8, !tbaa !62
  %22 = getelementptr inbounds nuw ptr, ptr %21, i64 %.01421
  %23 = load ptr, ptr %22, align 8, !tbaa !63
  %cond = icmp eq ptr %23, null
  br i1 %cond, label %._crit_edge, label %24

24:                                               ; preds = %20
  %25 = add i64 %13, -1
  store i64 %25, ptr %9, align 8, !tbaa !58
  br label %.lr.ph

.lr.ph:                                           ; preds = %24, %.lr.ph
  %.019 = phi ptr [ %27, %.lr.ph ], [ %23, %24 ]
  %26 = getelementptr inbounds nuw i8, ptr %.019, i64 24
  %27 = load ptr, ptr %26, align 8, !tbaa !65
  %28 = tail call ptr @H5MM_xfree(ptr noundef nonnull %.019) #14
  %.not17 = icmp eq ptr %27, null
  br i1 %.not17, label %._crit_edge.loopexit, label %.lr.ph, !llvm.loop !67

._crit_edge.loopexit:                             ; preds = %.lr.ph
  %.pre = load i64, ptr %9, align 8, !tbaa !58
  br label %._crit_edge

._crit_edge:                                      ; preds = %._crit_edge.loopexit, %20
  %29 = phi i64 [ %.pre, %._crit_edge.loopexit ], [ %13, %20 ]
  %30 = add i64 %.01421, 1
  %.not = icmp eq i64 %29, 0
  br i1 %.not, label %.critedge, label %12, !llvm.loop !68

31:                                               ; preds = %.critedge, %1
  ret i32 0
}